; Function Attrs: mustprogress nounwind uwtable
define dso_local { i32, ptr } @_ZN4llvm3sys2fs32setLastAccessAndModificationTimeEiNSt6chrono10time_pointINS2_3_V212system_clockENS2_8durationIlSt5ratioILl1ELl1000000000EEEEEESA_(i32 noundef %0, i64 %1, i64 %2) local_unnamed_addr #0 {
  %4 = alloca [2 x %struct.timespec], align 16
  %5 = sdiv i64 %1, 1000000000
  %6 = srem i64 %1, 1000000000
  store i64 %5, ptr %4, align 16
  %.sroa.24.0..sroa_idx = getelementptr inbounds i8, ptr %4, i64 8
  store i64 %6, ptr %.sroa.24.0..sroa_idx, align 8
  %7 = sdiv i64 %2, 1000000000
  %8 = srem i64 %2, 1000000000
  %9 = getelementptr inbounds i8, ptr %4, i64 16
  store i64 %7, ptr %9, align 16
  %.sroa.2.0..sroa_idx = getelementptr inbounds i8, ptr %4, i64 24
  store i64 %8, ptr %.sroa.2.0..sroa_idx, align 8
  %10 = call i32 @futimens(i32 noundef %0, ptr noundef nonnull %4) #30
  %.not = icmp eq i32 %10, 0
  br i1 %.not, label %15, label %11

11:                                               ; preds = %3
  %12 = tail call ptr @__errno_location() #33
  %13 = load i32, ptr %12, align 4
  %14 = tail call noundef nonnull align 8 dereferenceable(8) ptr @_ZNSt3_V216generic_categoryEv() #33
  br label %17

15:                                               ; preds = %3
  %16 = tail call noundef nonnull align 8 dereferenceable(8) ptr @_ZNSt3_V215system_categoryEv() #33
  br label %17

17:                                               ; preds = %15, %11
  %.sroa.3.0 = phi ptr [ %16, %15 ], [ %14, %11 ]
  %.sroa.0.0 = phi i32 [ 0, %15 ], [ %13, %11 ]
  %.fca.0.insert = insertvalue { i32, ptr } poison, i32 %.sroa.0.0, 0
  %.fca.1.insert = insertvalue { i32, ptr } %.fca.0.insert, ptr %.sroa.3.0, 1
  ret { i32, ptr } %.fca.1.insert
}